; Function Attrs: mustprogress uwtable
define noundef ptr @_ZN9benchmark28CreateDefaultDisplayReporterEv() local_unnamed_addr #0 personality ptr @__gxx_personality_v0 {
  %1 = alloca %"class.std::unique_ptr", align 8
  %2 = load atomic i8, ptr @_ZGVZN9benchmark28CreateDefaultDisplayReporterEvE24default_display_reporter acquire, align 8
  %3 = icmp eq i8 %2, 0
  br i1 %3, label %4, label %10, !prof !3

4:                                                ; preds = %0
  %5 = tail call i32 @__cxa_guard_acquire(ptr nonnull @_ZGVZN9benchmark28CreateDefaultDisplayReporterEvE24default_display_reporter) #32
  %.not = icmp eq i32 %5, 0
  br i1 %.not, label %10, label %6

6:                                                ; preds = %4
  call void @llvm.lifetime.start.p0(i64 8, ptr nonnull %1) #32
  %7 = invoke noundef i32 @_ZN9benchmark8internal16GetOutputOptionsEb(i1 noundef zeroext false)
          to label %8 unwind label %12

8:                                                ; preds = %6
  invoke fastcc void @_ZN9benchmark8internal12_GLOBAL__N_114CreateReporterERKNSt7__cxx1112basic_stringIcSt11char_traitsIcESaIcEEENS_15ConsoleReporter13OutputOptionsE(ptr dead_on_unwind noalias writable align 8 %1, ptr noundef nonnull align 8 dereferenceable(32) @_ZN9benchmark22FLAGS_benchmark_formatB5cxx11E, i32 noundef %7)
          to label %_ZNSt10unique_ptrIN9benchmark17BenchmarkReporterESt14default_deleteIS1_EED2Ev.exit unwind label %12

_ZNSt10unique_ptrIN9benchmark17BenchmarkReporterESt14default_deleteIS1_EED2Ev.exit: ; preds = %8
  %9 = load ptr, ptr %1, align 8, !tbaa !135
  call void @llvm.lifetime.end.p0(i64 8, ptr nonnull %1) #32
  store ptr %9, ptr @_ZZN9benchmark28CreateDefaultDisplayReporterEvE24default_display_reporter, align 8, !tbaa !135
  tail call void @__cxa_guard_release(ptr nonnull @_ZGVZN9benchmark28CreateDefaultDisplayReporterEvE24default_display_reporter) #32
  br label %10

10:                                               ; preds = %_ZNSt10unique_ptrIN9benchmark17BenchmarkReporterESt14default_deleteIS1_EED2Ev.exit, %4, %0
  %11 = load ptr, ptr @_ZZN9benchmark28CreateDefaultDisplayReporterEvE24default_display_reporter, align 8, !tbaa !135
  ret ptr %11

12:                                               ; preds = %8, %6
  %13 = landingpad { ptr, i32 }
          cleanup
  call void @llvm.lifetime.end.p0(i64 8, ptr nonnull %1) #32
  tail call void @__cxa_guard_abort(ptr nonnull @_ZGVZN9benchmark28CreateDefaultDisplayReporterEvE24default_display_reporter) #32
  resume { ptr, i32 } %13
}